target datalayout = "e-m:e-p270:32:32-p271:32:32-p272:64:64-i64:64-i128:128-f80:128-n8:16:32:64-S128"
target triple = "x86_64-pc-linux-gnu"

@is_initialized = internal global i32 0, align 4
@is_fastcgi = internal global i32 0, align 4

; Function Attrs: nounwind uwtable
define hidden i32 @fcgi_is_fastcgi() #0 {
  %1 = alloca i32, align 4
  %2 = load i32, ptr @is_initialized, align 4
  %3 = icmp ne i32 %2, 0
  br i1 %3, label %6, label %4

4:                                                ; preds = %0
  %5 = call i32 @fcgi_init()
  store i32 %5, ptr %1, align 4
  br label %8

6:                                                ; preds = %0
  %7 = load i32, ptr @is_fastcgi, align 4
  store i32 %7, ptr %1, align 4
  br label %8

8:                                                ; preds = %6, %4
  %9 = load i32, ptr %1, align 4
  ret i32 %9
}