; Function Attrs: nounwind uwtable
define hidden i32 @fcgi_is_fastcgi() local_unnamed_addr #3 {
  %.b = load i1, ptr @is_initialized, align 4
  br i1 %.b, label %3, label %1

1:                                                ; preds = %0
  %2 = tail call i32 @fcgi_init(), !range !4
  br label %5

3:                                                ; preds = %0
  %.b1 = load i1, ptr @is_fastcgi, align 4
  %4 = zext i1 %.b1 to i32
  br label %5

5:                                                ; preds = %3, %1
  %.0 = phi i32 [ %4, %3 ], [ %2, %1 ]
  ret i32 %.0
}